Certificate:
    Data:
        Version: 1 (0x0)
        Serial Number: 1 (0x1)
        Signature Algorithm: md5WithRSAEncryption
        Issuer: C=RU, ST=Moscow, L=Moscow, O=Companyname, OU=User, CN=etc/emailAddress=support@site.com
        Validity
            Not Before: Aug 27 04:17:40 2024 GMT
            Not After : Aug 27 04:17:40 2025 GMT
        Subject: C=RU, ST=Moscow, L=Moscow, O=Companyname, OU=User, CN=etc/emailAddress=support@site.com
        Subject Public Key Info:
            Public Key Algorithm: rsaEncryption
                RSA Public-Key: (2048 bit)
                Modulus:
                    00:e9:3a:52:7d:12:36:e6:26:10:a4:13:df:16:9a:
                    6d:fa:b4:4c:2c:72:0b:6f:6b:05:4e:79:a9:52:97:
                    1f:c3:2f:72:bd:32:82:29:a0:b5:39:e1:38:79:38:
                    92:bd:22:a8:a1:ae:e2:b0:80:f8:d5:be:99:89:bf:
                    92:6b:58:92:a7:37:3c:05:45:fe:b6:ae:9d:d0:db:
                    c6:3f:e0:e8:93:f0:fb:ce:0c:12:ed:06:d8:ea:4e:
                    2c:e0:62:46:f7:2c:83:2f:4e:44:a1:d2:88:9e:5a:
                    83:f7:39:4a:a4:8a:d6:13:2e:22:8e:91:a4:a7:19:
                    03:af:52:b2:2c:16:a1:6a:2a:1e:b4:e0:f9:27:45:
                    50:e0:21:09:04:a9:40:50:ed:3b:a3:3e:d8:ff:93:
                    0f:6b:b6:83:e7:4b:7f:0c:e5:0e:75:8c:c1:a5:63:
                    ea:9a:a3:b7:f8:76:e0:d2:1d:1b:44:48:7b:d8:2b:
                    9b:fc:a0:af:8d:cf:2b:a6:09:ca:11:2c:72:84:40:
                    2e:fc:36:da:10:1f:8a:2a:47:31:dc:90:7f:cd:2e:
                    6a:73:1e:d7:f5:9e:f2:65:83:f4:1f:54:25:66:41:
                    ca:34:48:99:22:dc:4e:e0:20:d5:50:43:24:c6:9b:
                    bc:3c:69:fa:6b:22:70:c4:75:c5:38:25:2e:65:1f:
                    e8:e5
                Exponent: 65537 (0x10001)
    Signature Algorithm: md5WithRSAEncryption
         a4:f8:dc:62:55:ff:9c:a0:d1:2d:ad:aa:56:02:c4:60:eb:75:
         1a:8c:b6:58:e4:64:6c:b8:41:16:1e:2b:fc:99:15:ae:56:b4:
         d4:d0:ad:5e:3f:81:b2:1d:c9:9b:bd:8b:4f:f6:c1:20:bf:58:
         42:c6:0a:85:d1:fe:64:ed:6a:84:0d:d7:5a:c1:a8:43:ba:f6:
         0f:6c:0f:0c:36:84:f3:22:35:46:9d:e3:5b:a5:82:21:4e:4c:
         58:2e:f3:77:77:2e:f3:5e:24:8d:a4:3e:f4:64:1c:d8:d3:df:
         b7:2d:76:7b:b9:26:08:33:39:e5:6c:0a:7a:69:69:0d:71:91:
         14:df:4e:45:d0:63:e5:f7:32:ca:11:38:cd:3e:ce:2e:c8:85:
         5a:04:ef:e8:e9:8c:98:ea:40:e4:95:45:0a:05:06:29:21:f8:
         28:80:26:73:ac:b1:97:09:fa:d0:ee:23:f1:8e:9e:d8:de:96:
         21:c7:12:40:2a:ec:64:46:75:51:8d:0f:bd:6f:3b:1c:08:a7:
         e8:6a:97:04:b3:63:63:67:89:99:5d:1e:94:af:53:44:87:ec:
         79:10:74:db:8a:87:a3:78:15:79:af:d1:04:99:dc:8a:a2:ec:
         67:89:64:10:13:a7:07:59:20:37:90:cb:92:a9:3a:91:f9:26:
         af:a0:9d:9a
-----BEGIN CERTIFICATE-----
MIIDfDCCAmQCAQEwDQYJKoZIhvcNAQEEBQAwgYMxCzAJBgNVBAYTAlJVMQ8wDQYD
VQQIDAZNb3Njb3cxDzANBgNVBAcMBk1vc2NvdzEUMBIGA1UECgwLQ29tcGFueW5h
bWUxDTALBgNVBAsMBFVzZXIxDDAKBgNVBAMMA2V0YzEfMB0GCSqGSIb3DQEJARYQ
c3VwcG9ydEBzaXRlLmNvbTAeFw0yNDA4MjcwNDE3NDBaFw0yNTA4MjcwNDE3NDBa
MIGDMQswCQYDVQQGEwJSVTEPMA0GA1UECAwGTW9zY293MQ8wDQYDVQQHDAZNb3Nj
b3cxFDASBgNVBAoMC0NvbXBhbnluYW1lMQ0wCwYDVQQLDARVc2VyMQwwCgYDVQQD
DANldGMxHzAdBgkqhkiG9w0BCQEWEHN1cHBvcnRAc2l0ZS5jb20wggEiMA0GCSqG
SIb3DQEBAQUAA4IBDwAwggEKAoIBAQDpOlJ9EjbmJhCkE98Wmm36tEwscgtvawVO
ealSlx/DL3K9MoIpoLU54Th5OJK9IqihruKwgPjVvpmJv5JrWJKnNzwFRf62rp3Q
28Y/4OiT8PvODBLtBtjqTizgYkb3LIMvTkSh0oieWoP3OUqkitYTLiKOkaSnGQOv
UrIsFqFqKh604PknRVDgIQkEqUBQ7TujPtj/kw9rtoPnS38M5Q51jMGlY+qao7f4
duDSHRtESHvYK5v8oK+NzyumCcoRLHKEQC78NtoQH4oqRzHckH/NLmpzHtf1nvJl
g/QfVCVmQco0SJki3E7gINVQQyTGm7w8afprInDEdcU4JS5lH+jlAgMBAAEwDQYJ
KoZIhvcNAQEEBQADggEBAKT43GJV/5yg0S2tqlYCxGDrdRqMtljkZGy4QRYeK/yZ
Fa5WtNTQrV4/gbIdyZu9i0/2wSC/WELGCoXR/mTtaoQN11rBqEO69g9sDww2hPMi
NUad41ulgiFOTFgu83d3LvNeJI2kPvRkHNjT37ctdnu5JggzOeVsCnppaQ1xkRTf
TkXQY+X3MsoROM0+zi7IhVoE7+jpjJjqQOSVRQoFBikh+CiAJnOssZcJ+tDuI/GO
ntjeliHHEkAq7GRGdVGND71vOxwIp+hqlwSzY2NniZldHpSvU0SH7HkQdNuKh6N4
FXmv0QSZ3Iqi7GeJZBATpwdZIDeQy5KpOpH5Jq+gnZo=
-----END CERTIFICATE-----
