Certificate:
    Data:
        Version: 1 (0x0)
        Serial Number: 1 (0x1)
        Signature Algorithm: md5WithRSAEncryption
        Issuer: C=RU, ST=Moscow, L=Moscow, O=Companyname, OU=User, CN=etc/emailAddress=support@site.com
        Validity
            Not Before: Aug 27 04:10:59 2024 GMT
            Not After : Aug 27 04:10:59 2025 GMT
        Subject: C=RU, ST=Moscow, L=Moscow, O=Companyname, OU=User, CN=etc/emailAddress=support@site.com
        Subject Public Key Info:
            Public Key Algorithm: rsaEncryption
                RSA Public-Key: (2048 bit)
                Modulus:
                    00:db:cb:ac:39:42:c5:37:c8:eb:1b:18:f3:ef:c2:
                    b0:fc:ce:da:48:cd:df:b8:eb:79:3e:46:a7:b5:c9:
                    08:a4:68:84:03:6c:e9:95:6e:12:27:d9:38:48:42:
                    b2:8c:1e:ff:70:43:00:05:10:b8:7f:74:ec:dd:75:
                    05:2c:e0:b1:95:88:a1:e7:e5:81:2a:e0:00:ce:8e:
                    0f:fa:a6:7c:8e:5d:e1:b4:70:14:92:c7:ee:71:cb:
                    77:94:21:ee:cc:d2:04:8e:5d:4b:1d:b0:86:77:2f:
                    8e:10:2d:1d:34:cb:e2:19:50:92:95:7a:b7:a4:d4:
                    ed:ad:fa:65:c5:ed:66:76:82:3a:29:8e:6f:70:79:
                    40:b7:73:71:8d:78:b5:4f:51:0b:48:6b:d0:f7:1f:
                    89:e7:99:f3:80:6f:14:7e:cd:67:12:ce:0c:7e:5c:
                    f1:c5:51:a1:e6:4c:6e:86:28:c3:c1:69:80:70:bf:
                    11:3f:b9:c9:77:2b:f7:23:86:fd:ce:a3:27:0a:b3:
                    f4:aa:45:41:c9:98:bb:75:3f:77:42:bb:79:ca:43:
                    51:22:7f:3a:12:a5:f3:0b:4b:9c:8d:fd:7c:64:8c:
                    1f:1b:e5:a0:87:ee:a8:7e:f2:da:81:2d:b1:45:18:
                    11:a5:73:23:05:6b:04:23:40:08:29:9b:72:11:9d:
                    b0:b3
                Exponent: 65537 (0x10001)
    Signature Algorithm: md5WithRSAEncryption
         81:94:ad:69:c1:ea:dd:ac:b0:2d:83:e4:42:54:f1:44:0c:b1:
         84:bc:77:16:b4:ab:73:a4:aa:9b:20:03:db:35:16:f6:d3:7e:
         70:71:ba:e1:1e:d5:30:97:9c:10:5c:41:5e:11:c4:8b:d3:8c:
         ee:2f:84:17:6a:1a:f0:f7:4d:70:c8:b1:0f:b8:46:3d:fc:2c:
         01:01:e2:5f:7a:5f:5d:17:4b:62:41:79:3c:42:59:1e:8b:c2:
         01:68:d9:76:e3:ff:45:b0:83:8b:c3:58:45:76:f7:75:49:21:
         b2:63:1c:67:47:67:a7:9a:92:8d:4e:9a:e2:d9:6a:bc:36:5f:
         c3:0b:48:22:d9:3a:ea:16:17:f8:a6:7c:ca:9a:8e:d5:12:a2:
         01:91:87:58:91:39:99:a9:93:2d:11:c0:61:3f:60:dc:8c:b1:
         d7:cf:16:bf:9a:fc:4b:ef:15:42:32:4a:f0:fa:28:d5:26:f3:
         3e:0a:ef:36:43:b8:b0:68:3b:9f:35:61:0f:ac:aa:7e:19:fd:
         09:35:e2:e6:44:39:3e:5f:e9:da:a6:1e:22:03:cb:83:60:78:
         79:e6:ae:38:0b:ee:e9:c8:1d:bd:29:40:04:fa:65:7a:5a:b7:
         81:4d:f5:d6:3f:2f:7a:17:78:d3:63:ec:e2:00:e6:ea:9b:52:
         d6:fd:22:29
-----BEGIN CERTIFICATE-----
MIIDfDCCAmQCAQEwDQYJKoZIhvcNAQEEBQAwgYMxCzAJBgNVBAYTAlJVMQ8wDQYD
VQQIDAZNb3Njb3cxDzANBgNVBAcMBk1vc2NvdzEUMBIGA1UECgwLQ29tcGFueW5h
bWUxDTALBgNVBAsMBFVzZXIxDDAKBgNVBAMMA2V0YzEfMB0GCSqGSIb3DQEJARYQ
c3VwcG9ydEBzaXRlLmNvbTAeFw0yNDA4MjcwNDEwNTlaFw0yNTA4MjcwNDEwNTla
MIGDMQswCQYDVQQGEwJSVTEPMA0GA1UECAwGTW9zY293MQ8wDQYDVQQHDAZNb3Nj
b3cxFDASBgNVBAoMC0NvbXBhbnluYW1lMQ0wCwYDVQQLDARVc2VyMQwwCgYDVQQD
DANldGMxHzAdBgkqhkiG9w0BCQEWEHN1cHBvcnRAc2l0ZS5jb20wggEiMA0GCSqG
SIb3DQEBAQUAA4IBDwAwggEKAoIBAQDby6w5QsU3yOsbGPPvwrD8ztpIzd+463k+
Rqe1yQikaIQDbOmVbhIn2ThIQrKMHv9wQwAFELh/dOzddQUs4LGViKHn5YEq4ADO
jg/6pnyOXeG0cBSSx+5xy3eUIe7M0gSOXUsdsIZ3L44QLR00y+IZUJKVerek1O2t
+mXF7WZ2gjopjm9weUC3c3GNeLVPUQtIa9D3H4nnmfOAbxR+zWcSzgx+XPHFUaHm
TG6GKMPBaYBwvxE/ucl3K/cjhv3OoycKs/SqRUHJmLt1P3dCu3nKQ1EifzoSpfML
S5yN/XxkjB8b5aCH7qh+8tqBLbFFGBGlcyMFawQjQAgpm3IRnbCzAgMBAAEwDQYJ
KoZIhvcNAQEEBQADggEBAIGUrWnB6t2ssC2D5EJU8UQMsYS8dxa0q3OkqpsgA9s1
FvbTfnBxuuEe1TCXnBBcQV4RxIvTjO4vhBdqGvD3TXDIsQ+4Rj38LAEB4l96X10X
S2JBeTxCWR6LwgFo2Xbj/0Wwg4vDWEV293VJIbJjHGdHZ6eako1OmuLZarw2X8ML
SCLZOuoWF/imfMqajtUSogGRh1iROZmpky0RwGE/YNyMsdfPFr+a/EvvFUIySvD6
KNUm8z4K7zZDuLBoO581YQ+sqn4Z/Qk14uZEOT5f6dqmHiIDy4NgeHnmrjgL7unI
Hb0pQAT6ZXpat4FN9dY/L3oXeNNj7OIA5uqbUtb9Iik=
-----END CERTIFICATE-----
